target datalayout = "e-m:e-p270:32:32-p271:32:32-p272:64:64-i64:64-i128:128-f80:128-n8:16:32:64-S128"
target triple = "x86_64-pc-linux-gnu"

%union.pthread_cond_t = type { %struct.__pthread_cond_s }
%struct.__pthread_cond_s = type { %union.__atomic_wide_counter, %union.__atomic_wide_counter, [2 x i32], [2 x i32], i32, i32, [2 x i32] }
%union.__atomic_wide_counter = type { i64 }
%union.pthread_mutex_t = type { %struct.__pthread_mutex_s }
%struct.__pthread_mutex_s = type { i32, i32, i32, i32, i32, i16, i16, %struct.__pthread_internal_list }
%struct.__pthread_internal_list = type { ptr, ptr }
%struct.onas_event_queue = type { ptr, ptr, i64 }
%struct.__sigset_t = type { [16 x i64] }
%struct.__pthread_unwind_buf_t = type { [1 x %struct.__cancel_jmp_buf_tag], [4 x ptr] }
%struct.__cancel_jmp_buf_tag = type { [8 x i64], i32 }
%struct.onas_context = type <{ ptr, ptr, i32, i32, i32, i32, i64, i8, i8, i8, i64, i64, i32, i32, i32, i32, i64, i32 }>
%struct.onas_event_queue_node = type { ptr, ptr, ptr }

@onas_scan_queue_empty_cond = dso_local global %union.pthread_cond_t zeroinitializer, align 8
@__const.onas_scan_queue_th.thread_name = private unnamed_addr constant [13 x i8] c"clamonacc-sq\00", align 1
@.str = private unnamed_addr constant [82 x i8] c"ClamScanQueue: initializing event queue consumer ... (%d) threads in thread pool\0A\00", align 1
@g_thpool = internal global ptr null, align 8
@.str.1 = private unnamed_addr constant [46 x i8] c"ClamScanQueue: waiting to consume events ...\0A\00", align 1
@onas_queue_lock = internal global %union.pthread_mutex_t zeroinitializer, align 8
@g_onas_event_queue_tail = internal global ptr null, align 8
@g_onas_event_queue = internal global %struct.onas_event_queue zeroinitializer, align 8
@g_onas_event_queue_head = internal global ptr null, align 8

; Function Attrs: nounwind uwtable
define internal void @onas_destroy_event_queue_node(ptr noundef %0) #0 {
  %2 = alloca ptr, align 8
  store ptr %0, ptr %2, align 8
  %3 = load ptr, ptr %2, align 8
  %4 = icmp eq ptr null, %3
  br i1 %4, label %5, label %6

5:                                                ; preds = %1
  br label %14

6:                                                ; preds = %1
  %7 = load ptr, ptr %2, align 8
  %8 = getelementptr inbounds %struct.onas_event_queue_node, ptr %7, i32 0, i32 0
  store ptr null, ptr %8, align 8
  %9 = load ptr, ptr %2, align 8
  %10 = getelementptr inbounds %struct.onas_event_queue_node, ptr %9, i32 0, i32 1
  store ptr null, ptr %10, align 8
  %11 = load ptr, ptr %2, align 8
  %12 = getelementptr inbounds %struct.onas_event_queue_node, ptr %11, i32 0, i32 2
  store ptr null, ptr %12, align 8
  %13 = load ptr, ptr %2, align 8
  call void @free(ptr noundef %13) #8
  store ptr null, ptr %2, align 8
  br label %14

14:                                               ; preds = %6, %5
  ret void
}

; Function Attrs: nounwind uwtable
define internal i32 @onas_queue_is_b_empty() #0 {
  %1 = alloca i32, align 4
  %2 = load ptr, ptr @g_onas_event_queue, align 8
  %3 = getelementptr inbounds %struct.onas_event_queue_node, ptr %2, i32 0, i32 0
  %4 = load ptr, ptr %3, align 8
  %5 = load ptr, ptr getelementptr inbounds (%struct.onas_event_queue, ptr @g_onas_event_queue, i32 0, i32 1), align 8
  %6 = icmp eq ptr %4, %5
  br i1 %6, label %7, label %8

7:                                                ; preds = %0
  store i32 1, ptr %1, align 4
  br label %9

8:                                                ; preds = %0
  store i32 0, ptr %1, align 4
  br label %9

9:                                                ; preds = %8, %7
  %10 = load i32, ptr %1, align 4
  ret i32 %10
}

; Function Attrs: nounwind uwtable
define internal i32 @onas_new_event_queue_node(ptr noundef %0) #0 {
  %2 = alloca i32, align 4
  %3 = alloca ptr, align 8
  %4 = alloca %struct.onas_event_queue_node, align 8
  store ptr %0, ptr %3, align 8
  %5 = call noalias ptr @malloc(i64 noundef 24) #11
  %6 = load ptr, ptr %3, align 8
  store ptr %5, ptr %6, align 8
  %7 = load ptr, ptr %3, align 8
  %8 = load ptr, ptr %7, align 8
  %9 = icmp eq ptr null, %8
  br i1 %9, label %10, label %11

10:                                               ; preds = %1
  store i32 20, ptr %2, align 4
  br label %14

11:                                               ; preds = %1
  %12 = load ptr, ptr %3, align 8
  %13 = load ptr, ptr %12, align 8
  call void @llvm.memset.p0.i64(ptr align 8 %4, i8 0, i64 24, i1 false)
  call void @llvm.memcpy.p0.p0.i64(ptr align 8 %13, ptr align 8 %4, i64 24, i1 false)
  store i32 0, ptr %2, align 4
  br label %14

14:                                               ; preds = %11, %10
  %15 = load i32, ptr %2, align 4
  ret i32 %15
}

; Function Attrs: nounwind uwtable
define internal i32 @onas_consume_event(ptr noundef %0) #0 {
  %2 = alloca ptr, align 8
  %3 = alloca ptr, align 8
  store ptr %0, ptr %2, align 8
  %4 = call i32 @pthread_mutex_lock(ptr noundef @onas_queue_lock) #8
  br label %5

5:                                                ; preds = %8, %1
  %6 = call i32 @onas_queue_is_b_empty()
  %7 = icmp ne i32 %6, 0
  br i1 %7, label %8, label %10

8:                                                ; preds = %5
  %9 = call i32 @pthread_cond_wait(ptr noundef @onas_scan_queue_empty_cond, ptr noundef @onas_queue_lock)
  br label %5

10:                                               ; preds = %5
  %11 = load ptr, ptr @g_onas_event_queue_head, align 8
  %12 = getelementptr inbounds %struct.onas_event_queue_node, ptr %11, i32 0, i32 0
  %13 = load ptr, ptr %12, align 8
  store ptr %13, ptr %3, align 8
  %14 = load ptr, ptr @g_onas_event_queue_head, align 8
  %15 = getelementptr inbounds %struct.onas_event_queue_node, ptr %14, i32 0, i32 0
  %16 = load ptr, ptr %15, align 8
  %17 = getelementptr inbounds %struct.onas_event_queue_node, ptr %16, i32 0, i32 0
  %18 = load ptr, ptr %17, align 8
  %19 = load ptr, ptr @g_onas_event_queue_head, align 8
  %20 = getelementptr inbounds %struct.onas_event_queue_node, ptr %19, i32 0, i32 0
  store ptr %18, ptr %20, align 8
  %21 = load ptr, ptr @g_onas_event_queue_head, align 8
  %22 = load ptr, ptr @g_onas_event_queue_head, align 8
  %23 = getelementptr inbounds %struct.onas_event_queue_node, ptr %22, i32 0, i32 0
  %24 = load ptr, ptr %23, align 8
  %25 = getelementptr inbounds %struct.onas_event_queue_node, ptr %24, i32 0, i32 1
  store ptr %21, ptr %25, align 8
  %26 = load i64, ptr getelementptr inbounds (%struct.onas_event_queue, ptr @g_onas_event_queue, i32 0, i32 2), align 8
  %27 = add i64 %26, -1
  store i64 %27, ptr getelementptr inbounds (%struct.onas_event_queue, ptr @g_onas_event_queue, i32 0, i32 2), align 8
  %28 = call i32 @pthread_mutex_unlock(ptr noundef @onas_queue_lock) #8
  %29 = load ptr, ptr %2, align 8
  %30 = load ptr, ptr %3, align 8
  %31 = getelementptr inbounds %struct.onas_event_queue_node, ptr %30, i32 0, i32 2
  %32 = load ptr, ptr %31, align 8
  %33 = call i32 @thpool_add_work(ptr noundef %29, ptr noundef @onas_scan_worker, ptr noundef %32)
  %34 = load ptr, ptr %3, align 8
  call void @onas_destroy_event_queue_node(ptr noundef %34)
  ret i32 1
}

; Function Attrs: nounwind uwtable
define internal ptr @onas_init_event_queue() #0 {
  %1 = alloca ptr, align 8
  %2 = alloca %struct.onas_event_queue, align 8
  %3 = call i32 @onas_new_event_queue_node(ptr noundef @g_onas_event_queue_head)
  %4 = icmp eq i32 20, %3
  br i1 %4, label %5, label %6

5:                                                ; preds = %0
  store ptr null, ptr %1, align 8
  br label %22

6:                                                ; preds = %0
  %7 = call i32 @onas_new_event_queue_node(ptr noundef @g_onas_event_queue_tail)
  %8 = icmp eq i32 20, %7
  br i1 %8, label %9, label %10

9:                                                ; preds = %6
  store ptr null, ptr %1, align 8
  br label %22

10:                                               ; preds = %6
  %11 = load ptr, ptr @g_onas_event_queue_head, align 8
  %12 = load ptr, ptr @g_onas_event_queue_tail, align 8
  %13 = getelementptr inbounds %struct.onas_event_queue_node, ptr %12, i32 0, i32 1
  store ptr %11, ptr %13, align 8
  %14 = load ptr, ptr @g_onas_event_queue_tail, align 8
  %15 = load ptr, ptr @g_onas_event_queue_head, align 8
  %16 = getelementptr inbounds %struct.onas_event_queue_node, ptr %15, i32 0, i32 0
  store ptr %14, ptr %16, align 8
  %17 = getelementptr inbounds %struct.onas_event_queue, ptr %2, i32 0, i32 0
  %18 = load ptr, ptr @g_onas_event_queue_head, align 8
  store ptr %18, ptr %17, align 8
  %19 = getelementptr inbounds %struct.onas_event_queue, ptr %2, i32 0, i32 1
  %20 = load ptr, ptr @g_onas_event_queue_tail, align 8
  store ptr %20, ptr %19, align 8
  %21 = getelementptr inbounds %struct.onas_event_queue, ptr %2, i32 0, i32 2
  store i64 0, ptr %21, align 8
  call void @llvm.memcpy.p0.p0.i64(ptr align 8 @g_onas_event_queue, ptr align 8 %2, i64 24, i1 false)
  store ptr @g_onas_event_queue, ptr %1, align 8
  br label %22

22:                                               ; preds = %10, %9, %5
  %23 = load ptr, ptr %1, align 8
  ret ptr %23
}

; Function Attrs: nounwind uwtable
define dso_local ptr @onas_scan_queue_th(ptr noundef %0) #0 {
  %2 = alloca ptr, align 8
  %3 = alloca ptr, align 8
  %4 = alloca [13 x i8], align 1
  %5 = alloca ptr, align 8
  %6 = alloca %struct.__sigset_t, align 8
  %7 = alloca ptr, align 8
  %8 = alloca %struct.__pthread_unwind_buf_t, align 16
  %9 = alloca ptr, align 8
  %10 = alloca ptr, align 8
  %11 = alloca i32, align 4
  store ptr %0, ptr %3, align 8
  call void @llvm.memcpy.p0.p0.i64(ptr align 1 %4, ptr align 1 @__const.onas_scan_queue_th.thread_name, i64 13, i1 false)
  %12 = getelementptr inbounds [13 x i8], ptr %4, i64 0, i64 0
  %13 = call i32 (i32, ...) @prctl(i32 noundef 15, ptr noundef %12) #8
  %14 = load ptr, ptr %3, align 8
  store ptr %14, ptr %5, align 8
  %15 = call i32 @sigfillset(ptr noundef %6) #8
  %16 = call i32 @sigdelset(ptr noundef %6, i32 noundef 12) #8
  %17 = call i32 @sigdelset(ptr noundef %6, i32 noundef 8) #8
  %18 = call i32 @sigdelset(ptr noundef %6, i32 noundef 4) #8
  %19 = call i32 @sigdelset(ptr noundef %6, i32 noundef 11) #8
  %20 = call i32 @sigdelset(ptr noundef %6, i32 noundef 15) #8
  %21 = call i32 @sigdelset(ptr noundef %6, i32 noundef 2) #8
  %22 = call i32 @sigdelset(ptr noundef %6, i32 noundef 7) #8
  %23 = call i32 @pthread_sigmask(i32 noundef 2, ptr noundef %6, ptr noundef null) #8
  %24 = load ptr, ptr %5, align 8
  %25 = getelementptr inbounds %struct.onas_context, ptr %24, i32 0, i32 17
  %26 = load i32, ptr %25, align 1
  %27 = call i32 (i32, ptr, ...) @logg(i32 noundef 2, ptr noundef @.str, i32 noundef %26)
  %28 = call ptr @onas_init_event_queue()
  %29 = load ptr, ptr %5, align 8
  %30 = getelementptr inbounds %struct.onas_context, ptr %29, i32 0, i32 17
  %31 = load i32, ptr %30, align 1
  %32 = call ptr @thpool_init(i32 noundef %31)
  store ptr %32, ptr %7, align 8
  %33 = load ptr, ptr %7, align 8
  store ptr %33, ptr @g_thpool, align 8
  br label %34

34:                                               ; preds = %1
  store ptr @onas_scan_queue_exit, ptr %9, align 8
  store ptr null, ptr %10, align 8
  %35 = getelementptr inbounds %struct.__pthread_unwind_buf_t, ptr %8, i32 0, i32 0
  %36 = getelementptr inbounds [1 x %struct.__cancel_jmp_buf_tag], ptr %35, i64 0, i64 0
  %37 = call i32 @__sigsetjmp(ptr noundef %36, i32 noundef 0) #9
  store i32 %37, ptr %11, align 4
  %38 = load i32, ptr %11, align 4
  %39 = sext i32 %38 to i64
  %40 = icmp ne i64 %39, 0
  br i1 %40, label %41, label %44

41:                                               ; preds = %34
  %42 = load ptr, ptr %9, align 8
  %43 = load ptr, ptr %10, align 8
  call void %42(ptr noundef %43)
  call void @__pthread_unwind_next(ptr noundef %8) #10
  unreachable

44:                                               ; preds = %34
  call void @__pthread_register_cancel(ptr noundef %8)
  br label %45

45:                                               ; preds = %44
  %46 = call i32 (i32, ptr, ...) @logg(i32 noundef 2, ptr noundef @.str.1)
  br label %47

47:                                               ; preds = %50, %45
  %48 = load ptr, ptr %7, align 8
  %49 = call i32 @onas_consume_event(ptr noundef %48)
  br label %50

50:                                               ; preds = %47
  br i1 true, label %47, label %51

51:                                               ; preds = %50
  br label %52

52:                                               ; preds = %51
  br label %53

53:                                               ; preds = %52
  br label %54

54:                                               ; preds = %53
  call void @__pthread_unregister_cancel(ptr noundef %8)
  %55 = load ptr, ptr %9, align 8
  %56 = load ptr, ptr %10, align 8
  call void %55(ptr noundef %56)
  br label %57

57:                                               ; preds = %54
  %58 = load ptr, ptr %2, align 8
  ret ptr %58
}