; Function Attrs: noreturn nounwind uwtable
define dso_local noalias noundef nonnull ptr @onas_scan_queue_th(ptr nocapture noundef readonly %0) #0 {
  %2 = alloca [13 x i8], align 1
  %3 = alloca %struct.__sigset_t, align 8
  %4 = alloca %struct.__pthread_unwind_buf_t, align 16
  call void @llvm.memcpy.p0.p0.i64(ptr noundef nonnull align 1 dereferenceable(13) %2, ptr noundef nonnull align 1 dereferenceable(13) @__const.onas_scan_queue_th.thread_name, i64 13, i1 false)
  %5 = call i32 (i32, ...) @prctl(i32 noundef 15, ptr noundef nonnull %2) #9
  %6 = call i32 @sigfillset(ptr noundef nonnull %3) #9
  %7 = call i32 @sigdelset(ptr noundef nonnull %3, i32 noundef 12) #9
  %8 = call i32 @sigdelset(ptr noundef nonnull %3, i32 noundef 8) #9
  %9 = call i32 @sigdelset(ptr noundef nonnull %3, i32 noundef 4) #9
  %10 = call i32 @sigdelset(ptr noundef nonnull %3, i32 noundef 11) #9
  %11 = call i32 @sigdelset(ptr noundef nonnull %3, i32 noundef 15) #9
  %12 = call i32 @sigdelset(ptr noundef nonnull %3, i32 noundef 2) #9
  %13 = call i32 @sigdelset(ptr noundef nonnull %3, i32 noundef 7) #9
  %14 = call i32 @pthread_sigmask(i32 noundef 2, ptr noundef nonnull %3, ptr noundef null) #9
  %15 = getelementptr inbounds i8, ptr %0, i64 83
  %16 = load i32, ptr %15, align 1
  %17 = call i32 (i32, ptr, ...) @logg(i32 noundef 2, ptr noundef nonnull @.str, i32 noundef %16) #9
  %calloc.i.i = call dereferenceable_or_null(24) ptr @calloc(i64 1, i64 24)
  store ptr %calloc.i.i, ptr @g_onas_event_queue_head, align 8
  %18 = icmp eq ptr %calloc.i.i, null
  br i1 %18, label %onas_init_event_queue.exit, label %19

19:                                               ; preds = %1
  %calloc.i1.i = call dereferenceable_or_null(24) ptr @calloc(i64 1, i64 24)
  store ptr %calloc.i1.i, ptr @g_onas_event_queue_tail, align 8
  %20 = icmp eq ptr %calloc.i1.i, null
  br i1 %20, label %onas_init_event_queue.exit, label %21

21:                                               ; preds = %19
  %22 = getelementptr inbounds i8, ptr %calloc.i1.i, i64 8
  store ptr %calloc.i.i, ptr %22, align 8
  store ptr %calloc.i1.i, ptr %calloc.i.i, align 8
  store ptr %calloc.i.i, ptr @g_onas_event_queue.0, align 8
  store ptr %calloc.i1.i, ptr @g_onas_event_queue.1, align 8
  store i64 0, ptr @g_onas_event_queue.2, align 8
  br label %onas_init_event_queue.exit

onas_init_event_queue.exit:                       ; preds = %1, %19, %21
  %23 = load i32, ptr %15, align 1
  %24 = call ptr @thpool_init(i32 noundef %23) #9
  store ptr %24, ptr @g_thpool, align 8
  %25 = call i32 @__sigsetjmp(ptr noundef nonnull %4, i32 noundef 0) #10
  %.not = icmp eq i32 %25, 0
  br i1 %.not, label %27, label %26

26:                                               ; preds = %onas_init_event_queue.exit
  call fastcc void @onas_scan_queue_exit()
  call void @__pthread_unwind_next(ptr noundef nonnull %4) #11
  unreachable

27:                                               ; preds = %onas_init_event_queue.exit
  call void @__pthread_register_cancel(ptr noundef nonnull %4) #9
  %28 = call i32 (i32, ptr, ...) @logg(i32 noundef 2, ptr noundef nonnull @.str.1) #9
  br label %29

29:                                               ; preds = %onas_consume_event.exit, %27
  %30 = call i32 @pthread_mutex_lock(ptr noundef nonnull @onas_queue_lock) #9
  %31 = load ptr, ptr @g_onas_event_queue.0, align 8
  %32 = load ptr, ptr %31, align 8
  %33 = load ptr, ptr @g_onas_event_queue.1, align 8
  %.not3.i = icmp eq ptr %32, %33
  br i1 %.not3.i, label %.lr.ph.i, label %onas_consume_event.exit

.lr.ph.i:                                         ; preds = %29, %.lr.ph.i
  %34 = call i32 @pthread_cond_wait(ptr noundef nonnull @onas_scan_queue_empty_cond, ptr noundef nonnull @onas_queue_lock) #9
  %35 = load ptr, ptr @g_onas_event_queue.0, align 8
  %36 = load ptr, ptr %35, align 8
  %37 = load ptr, ptr @g_onas_event_queue.1, align 8
  %.not.i = icmp eq ptr %36, %37
  br i1 %.not.i, label %.lr.ph.i, label %onas_consume_event.exit

onas_consume_event.exit:                          ; preds = %.lr.ph.i, %29
  %38 = load ptr, ptr @g_onas_event_queue_head, align 8
  %39 = load ptr, ptr %38, align 8
  %40 = load ptr, ptr %39, align 8
  store ptr %40, ptr %38, align 8
  %41 = getelementptr inbounds i8, ptr %40, i64 8
  store ptr %38, ptr %41, align 8
  %42 = load i64, ptr @g_onas_event_queue.2, align 8
  %43 = add i64 %42, -1
  store i64 %43, ptr @g_onas_event_queue.2, align 8
  %44 = call i32 @pthread_mutex_unlock(ptr noundef nonnull @onas_queue_lock) #9
  %45 = getelementptr inbounds i8, ptr %39, i64 16
  %46 = load ptr, ptr %45, align 8
  %47 = call i32 @thpool_add_work(ptr noundef %24, ptr noundef nonnull @onas_scan_worker, ptr noundef %46) #9
  call void @free(ptr noundef nonnull %39) #9
  br label %29
}